target datalayout = "e-m:e-p270:32:32-p271:32:32-p272:64:64-i64:64-i128:128-f80:128-n8:16:32:64-S128"
target triple = "x86_64-unknown-linux-gnu"

%class.b3PgsJacobiSolver = type { ptr, %class.b3AlignedObjectArray, %class.b3AlignedObjectArray.0, %class.b3AlignedObjectArray.0, %class.b3AlignedObjectArray.0, %class.b3AlignedObjectArray.0, %class.b3AlignedObjectArray.4, %class.b3AlignedObjectArray.4, %class.b3AlignedObjectArray.4, %class.b3AlignedObjectArray.8, %class.b3AlignedObjectArray.4, %class.b3AlignedObjectArray.4, %class.b3AlignedObjectArray.12, %class.b3AlignedObjectArray.12, i8, i32, i32, i64 }
%class.b3AlignedObjectArray = type <{ %class.b3AlignedAllocator, [3 x i8], i32, i32, [4 x i8], ptr, i8, [7 x i8] }>
%class.b3AlignedAllocator = type { i8 }
%class.b3AlignedObjectArray.0 = type <{ %class.b3AlignedAllocator.1, [3 x i8], i32, i32, [4 x i8], ptr, i8, [7 x i8] }>
%class.b3AlignedAllocator.1 = type { i8 }
%class.b3AlignedObjectArray.8 = type <{ %class.b3AlignedAllocator.9, [3 x i8], i32, i32, [4 x i8], ptr, i8, [7 x i8] }>
%class.b3AlignedAllocator.9 = type { i8 }
%class.b3AlignedObjectArray.4 = type <{ %class.b3AlignedAllocator.5, [3 x i8], i32, i32, [4 x i8], ptr, i8, [7 x i8] }>
%class.b3AlignedAllocator.5 = type { i8 }
%class.b3AlignedObjectArray.12 = type <{ %class.b3AlignedAllocator.13, [3 x i8], i32, i32, [4 x i8], ptr, i8, [7 x i8] }>
%class.b3AlignedAllocator.13 = type { i8 }
%struct.b3ContactSolverInfoData = type { float, float, float, float, float, i32, float, float, float, float, float, i32, float, float, float, float, i32, i32, i32, float, float }
%class.b3ProfileZone = type { i8 }

@.str.2 = private unnamed_addr constant [34 x i8] c"solveGroupCacheFriendlyIterations\00", align 1

; Function Attrs: mustprogress nounwind uwtable
define linkonce_odr dso_local void @_ZN13b3ProfileZoneD2Ev(ptr noundef nonnull align 1 dereferenceable(1) %this) unnamed_addr #1 comdat align 2 personality ptr @__gxx_personality_v0 {
entry:
  %this.addr = alloca ptr, align 8
  store ptr %this, ptr %this.addr, align 8
  invoke void @b3LeaveProfileZone()
          to label %invoke.cont unwind label %terminate.lpad

invoke.cont:                                      ; preds = %entry
  ret void

terminate.lpad:                                   ; preds = %entry
  %0 = landingpad { ptr, i32 }
          catch ptr null
  %1 = extractvalue { ptr, i32 } %0, 0
  call void @__clang_call_terminate(ptr %1) #11
  unreachable
}

; Function Attrs: mustprogress uwtable
define linkonce_odr dso_local void @_ZN13b3ProfileZoneC2EPKc(ptr noundef nonnull align 1 dereferenceable(1) %this, ptr noundef %name) unnamed_addr #3 comdat align 2 {
entry:
  %this.addr = alloca ptr, align 8
  %name.addr = alloca ptr, align 8
  store ptr %this, ptr %this.addr, align 8
  store ptr %name, ptr %name.addr, align 8
  %0 = load ptr, ptr %name.addr, align 8
  call void @b3EnterProfileZone(ptr noundef %0)
  ret void
}

; Function Attrs: mustprogress uwtable
define dso_local noundef float @_ZN17b3PgsJacobiSolver33solveGroupCacheFriendlyIterationsEPP17b3TypedConstraintiRK19b3ContactSolverInfo(ptr noundef nonnull align 8 dereferenceable(448) %this, ptr noundef %constraints, i32 noundef %numConstraints, ptr noundef nonnull align 4 dereferenceable(84) %infoGlobal) unnamed_addr #3 align 2 personality ptr @__gxx_personality_v0 {
entry:
  %this.addr = alloca ptr, align 8
  %constraints.addr = alloca ptr, align 8
  %numConstraints.addr = alloca i32, align 4
  %infoGlobal.addr = alloca ptr, align 8
  %__profile = alloca %class.b3ProfileZone, align 1
  %exn.slot = alloca ptr, align 8
  %ehselector.slot = alloca i32, align 4
  %maxIterations = alloca i32, align 4
  %iteration = alloca i32, align 4
  store ptr %this, ptr %this.addr, align 8
  store ptr %constraints, ptr %constraints.addr, align 8
  store i32 %numConstraints, ptr %numConstraints.addr, align 4
  store ptr %infoGlobal, ptr %infoGlobal.addr, align 8
  %this1 = load ptr, ptr %this.addr, align 8
  call void @_ZN13b3ProfileZoneC2EPKc(ptr noundef nonnull align 1 dereferenceable(1) %__profile, ptr noundef @.str.2)
  %0 = load ptr, ptr %constraints.addr, align 8
  %1 = load i32, ptr %numConstraints.addr, align 4
  %2 = load ptr, ptr %infoGlobal.addr, align 8
  %vtable = load ptr, ptr %this1, align 8
  %vfn = getelementptr inbounds ptr, ptr %vtable, i64 2
  %3 = load ptr, ptr %vfn, align 8
  invoke void %3(ptr noundef nonnull align 8 dereferenceable(448) %this1, ptr noundef %0, i32 noundef %1, ptr noundef nonnull align 4 dereferenceable(84) %2)
          to label %invoke.cont unwind label %lpad

invoke.cont:                                      ; preds = %entry
  %m_maxOverrideNumSolverIterations = getelementptr inbounds %class.b3PgsJacobiSolver, ptr %this1, i32 0, i32 15
  %4 = load i32, ptr %m_maxOverrideNumSolverIterations, align 4
  %5 = load ptr, ptr %infoGlobal.addr, align 8
  %m_numIterations = getelementptr inbounds %struct.b3ContactSolverInfoData, ptr %5, i32 0, i32 5
  %6 = load i32, ptr %m_numIterations, align 4
  %cmp = icmp sgt i32 %4, %6
  br i1 %cmp, label %cond.true, label %cond.false

cond.true:                                        ; preds = %invoke.cont
  %m_maxOverrideNumSolverIterations2 = getelementptr inbounds %class.b3PgsJacobiSolver, ptr %this1, i32 0, i32 15
  %7 = load i32, ptr %m_maxOverrideNumSolverIterations2, align 4
  br label %cond.end

cond.false:                                       ; preds = %invoke.cont
  %8 = load ptr, ptr %infoGlobal.addr, align 8
  %m_numIterations3 = getelementptr inbounds %struct.b3ContactSolverInfoData, ptr %8, i32 0, i32 5
  %9 = load i32, ptr %m_numIterations3, align 4
  br label %cond.end

cond.end:                                         ; preds = %cond.false, %cond.true
  %cond = phi i32 [ %7, %cond.true ], [ %9, %cond.false ]
  store i32 %cond, ptr %maxIterations, align 4
  store i32 0, ptr %iteration, align 4
  br label %for.cond

for.cond:                                         ; preds = %for.inc, %cond.end
  %10 = load i32, ptr %iteration, align 4
  %11 = load i32, ptr %maxIterations, align 4
  %cmp4 = icmp slt i32 %10, %11
  br i1 %cmp4, label %for.body, label %for.end

for.body:                                         ; preds = %for.cond
  %12 = load i32, ptr %iteration, align 4
  %13 = load ptr, ptr %constraints.addr, align 8
  %14 = load i32, ptr %numConstraints.addr, align 4
  %15 = load ptr, ptr %infoGlobal.addr, align 8
  %call = invoke noundef float @_ZN17b3PgsJacobiSolver20solveSingleIterationEiPP17b3TypedConstraintiRK19b3ContactSolverInfo(ptr noundef nonnull align 8 dereferenceable(448) %this1, i32 noundef %12, ptr noundef %13, i32 noundef %14, ptr noundef nonnull align 4 dereferenceable(84) %15)
          to label %invoke.cont5 unwind label %lpad

invoke.cont5:                                     ; preds = %for.body
  %m_usePgs = getelementptr inbounds %class.b3PgsJacobiSolver, ptr %this1, i32 0, i32 14
  %16 = load i8, ptr %m_usePgs, align 8
  %tobool = trunc i8 %16 to i1
  br i1 %tobool, label %if.end, label %if.then

if.then:                                          ; preds = %invoke.cont5
  invoke void @_ZN17b3PgsJacobiSolver17averageVelocitiesEv(ptr noundef nonnull align 8 dereferenceable(448) %this1)
          to label %invoke.cont6 unwind label %lpad

invoke.cont6:                                     ; preds = %if.then
  br label %if.end

lpad:                                             ; preds = %if.then, %for.body, %entry
  %17 = landingpad { ptr, i32 }
          cleanup
  %18 = extractvalue { ptr, i32 } %17, 0
  store ptr %18, ptr %exn.slot, align 8
  %19 = extractvalue { ptr, i32 } %17, 1
  store i32 %19, ptr %ehselector.slot, align 4
  call void @_ZN13b3ProfileZoneD2Ev(ptr noundef nonnull align 1 dereferenceable(1) %__profile) #10
  br label %eh.resume

if.end:                                           ; preds = %invoke.cont6, %invoke.cont5
  br label %for.inc

for.inc:                                          ; preds = %if.end
  %20 = load i32, ptr %iteration, align 4
  %inc = add nsw i32 %20, 1
  store i32 %inc, ptr %iteration, align 4
  br label %for.cond, !llvm.loop !42

for.end:                                          ; preds = %for.cond
  call void @_ZN13b3ProfileZoneD2Ev(ptr noundef nonnull align 1 dereferenceable(1) %__profile) #10
  ret float 0.000000e+00

eh.resume:                                        ; preds = %lpad
  %exn = load ptr, ptr %exn.slot, align 8
  %sel = load i32, ptr %ehselector.slot, align 4
  %lpad.val = insertvalue { ptr, i32 } poison, ptr %exn, 0
  %lpad.val7 = insertvalue { ptr, i32 } %lpad.val, i32 %sel, 1
  resume { ptr, i32 } %lpad.val7
}