; Function Attrs: mustprogress uwtable
define dso_local noundef float @_ZN17b3PgsJacobiSolver33solveGroupCacheFriendlyIterationsEPP17b3TypedConstraintiRK19b3ContactSolverInfo(ptr noundef nonnull align 8 dereferenceable(448) %this, ptr noundef %constraints, i32 noundef %numConstraints, ptr noundef nonnull align 4 dereferenceable(84) %infoGlobal) unnamed_addr #5 align 2 personality ptr @__gxx_personality_v0 {
entry:
  tail call void @b3EnterProfileZone(ptr noundef nonnull @.str.2)
  %vtable = load ptr, ptr %this, align 8
  %vfn = getelementptr inbounds i8, ptr %vtable, i64 16
  %0 = load ptr, ptr %vfn, align 8
  invoke void %0(ptr noundef nonnull align 8 dereferenceable(448) %this, ptr noundef %constraints, i32 noundef %numConstraints, ptr noundef nonnull align 4 dereferenceable(84) %infoGlobal)
          to label %invoke.cont unwind label %lpad.loopexit.split-lp

invoke.cont:                                      ; preds = %entry
  %m_maxOverrideNumSolverIterations = getelementptr inbounds i8, ptr %this, i64 428
  %1 = load i32, ptr %m_maxOverrideNumSolverIterations, align 4
  %m_numIterations = getelementptr inbounds i8, ptr %infoGlobal, i64 20
  %2 = load i32, ptr %m_numIterations, align 4
  %. = tail call i32 @llvm.smax.i32(i32 %1, i32 %2)
  %cmp413 = icmp sgt i32 %., 0
  br i1 %cmp413, label %for.body.lr.ph, label %for.end

for.body.lr.ph:                                   ; preds = %invoke.cont
  %m_usePgs = getelementptr inbounds i8, ptr %this, i64 424
  br label %for.body

for.body:                                         ; preds = %for.body.lr.ph, %for.inc
  %iteration.014 = phi i32 [ 0, %for.body.lr.ph ], [ %inc, %for.inc ]
  %call = invoke noundef float @_ZN17b3PgsJacobiSolver20solveSingleIterationEiPP17b3TypedConstraintiRK19b3ContactSolverInfo(ptr noundef nonnull align 8 dereferenceable(448) %this, i32 noundef %iteration.014, ptr poison, i32 poison, ptr noundef nonnull align 4 dereferenceable(84) %infoGlobal)
          to label %invoke.cont5 unwind label %lpad.loopexit

invoke.cont5:                                     ; preds = %for.body
  %3 = load i8, ptr %m_usePgs, align 8
  %4 = and i8 %3, 1
  %tobool.not = icmp eq i8 %4, 0
  br i1 %tobool.not, label %if.then, label %for.inc

if.then:                                          ; preds = %invoke.cont5
  invoke void @_ZN17b3PgsJacobiSolver17averageVelocitiesEv(ptr noundef nonnull align 8 dereferenceable(448) %this)
          to label %for.inc unwind label %lpad.loopexit

lpad.loopexit:                                    ; preds = %for.body, %if.then
  %lpad.loopexit11 = landingpad { ptr, i32 }
          cleanup
  br label %lpad

lpad.loopexit.split-lp:                           ; preds = %entry
  %lpad.loopexit.split-lp12 = landingpad { ptr, i32 }
          cleanup
  br label %lpad

lpad:                                             ; preds = %lpad.loopexit.split-lp, %lpad.loopexit
  %lpad.phi = phi { ptr, i32 } [ %lpad.loopexit11, %lpad.loopexit ], [ %lpad.loopexit.split-lp12, %lpad.loopexit.split-lp ]
  invoke void @b3LeaveProfileZone()
          to label %_ZN13b3ProfileZoneD2Ev.exit unwind label %terminate.lpad.i

terminate.lpad.i:                                 ; preds = %lpad
  %5 = landingpad { ptr, i32 }
          catch ptr null
  %6 = extractvalue { ptr, i32 } %5, 0
  tail call void @__clang_call_terminate(ptr %6) #19
  unreachable

_ZN13b3ProfileZoneD2Ev.exit:                      ; preds = %lpad
  resume { ptr, i32 } %lpad.phi

for.inc:                                          ; preds = %invoke.cont5, %if.then
  %inc = add nuw nsw i32 %iteration.014, 1
  %exitcond.not = icmp eq i32 %inc, %.
  br i1 %exitcond.not, label %for.end, label %for.body, !llvm.loop !43

for.end:                                          ; preds = %for.inc, %invoke.cont
  invoke void @b3LeaveProfileZone()
          to label %_ZN13b3ProfileZoneD2Ev.exit10 unwind label %terminate.lpad.i9

terminate.lpad.i9:                                ; preds = %for.end
  %7 = landingpad { ptr, i32 }
          catch ptr null
  %8 = extractvalue { ptr, i32 } %7, 0
  tail call void @__clang_call_terminate(ptr %8) #19
  unreachable

_ZN13b3ProfileZoneD2Ev.exit10:                    ; preds = %for.end
  ret float 0.000000e+00
}